; Function Attrs: nounwind uwtable
define void @SUNMatDestroy(ptr noundef %0) local_unnamed_addr #5 {
  %2 = icmp eq ptr %0, null
  br i1 %2, label %17, label %3

3:                                                ; preds = %1
  %4 = getelementptr inbounds nuw i8, ptr %0, i64 8
  %5 = load ptr, ptr %4, align 8, !tbaa !3
  %.not = icmp eq ptr %5, null
  br i1 %.not, label %10, label %6

6:                                                ; preds = %3
  %7 = getelementptr inbounds nuw i8, ptr %5, i64 16
  %8 = load ptr, ptr %7, align 8, !tbaa !15
  %.not16 = icmp eq ptr %8, null
  br i1 %.not16, label %10, label %9

9:                                                ; preds = %6
  tail call void %8(ptr noundef nonnull %0) #8
  br label %17

10:                                               ; preds = %6, %3
  %11 = load ptr, ptr %0, align 8, !tbaa !10
  %.not17 = icmp eq ptr %11, null
  br i1 %.not17, label %13, label %12

12:                                               ; preds = %10
  tail call void @free(ptr noundef nonnull %11) #8
  store ptr null, ptr %0, align 8, !tbaa !10
  %.pre = load ptr, ptr %4, align 8, !tbaa !3
  br label %13

13:                                               ; preds = %12, %10
  %14 = phi ptr [ %.pre, %12 ], [ %5, %10 ]
  %.not18 = icmp eq ptr %14, null
  br i1 %.not18, label %16, label %15

15:                                               ; preds = %13
  tail call void @free(ptr noundef nonnull %14) #8
  br label %16

16:                                               ; preds = %15, %13
  tail call void @free(ptr noundef nonnull %0) #8
  br label %17

17:                                               ; preds = %1, %16, %9
  ret void
}